; Function Attrs: nounwind uwtable
define noalias nonnull ptr @l_Lean_instMonadCacheExceptTOfMonad___rarg(ptr noundef %0, ptr noundef %1) #0 {
  %3 = ptrtoint ptr %1 to i64
  %4 = and i64 %3, 1
  %.not = icmp eq i64 %4, 0
  br i1 %.not, label %5, label %lean_inc.exit15

5:                                                ; preds = %2
  %.val.i = load i32, ptr %1, align 4, !tbaa !8
  %6 = icmp sgt i32 %.val.i, 0
  br i1 %6, label %7, label %9, !prof !11

7:                                                ; preds = %5
  %8 = add nuw i32 %.val.i, 1
  store i32 %8, ptr %1, align 4, !tbaa !8
  br label %lean_inc.exit15

9:                                                ; preds = %5
  %.not.i = icmp eq i32 %.val.i, 0
  br i1 %.not.i, label %lean_inc.exit15, label %10

10:                                               ; preds = %9
  tail call void @lean_inc_ref_cold(ptr noundef nonnull %1) #4
  br label %lean_inc.exit15

lean_inc.exit15:                                  ; preds = %10, %9, %7, %2
  %11 = ptrtoint ptr %0 to i64
  %12 = and i64 %11, 1
  %.not20 = icmp eq i64 %12, 0
  br i1 %.not20, label %13, label %lean_inc.exit

13:                                               ; preds = %lean_inc.exit15
  %.val.i16 = load i32, ptr %0, align 4, !tbaa !8
  %14 = icmp sgt i32 %.val.i16, 0
  br i1 %14, label %15, label %17, !prof !11

15:                                               ; preds = %13
  %16 = add nuw i32 %.val.i16, 1
  store i32 %16, ptr %0, align 4, !tbaa !8
  br label %lean_inc.exit

17:                                               ; preds = %13
  %.not.i17 = icmp eq i32 %.val.i16, 0
  br i1 %.not.i17, label %lean_inc.exit, label %18

18:                                               ; preds = %17
  tail call void @lean_inc_ref_cold(ptr noundef nonnull %0) #4
  br label %lean_inc.exit

lean_inc.exit:                                    ; preds = %18, %17, %15, %lean_inc.exit15
  tail call void @lean_inc_heartbeat() #4
  %19 = tail call noalias ptr @mi_malloc_small(i64 noundef 40) #4
  %20 = icmp eq ptr %19, null
  br i1 %20, label %21, label %lean_alloc_closure.exit

21:                                               ; preds = %lean_inc.exit
  tail call void @lean_internal_panic_out_of_memory() #5
  unreachable

lean_alloc_closure.exit:                          ; preds = %lean_inc.exit
  %22 = getelementptr inbounds nuw i8, ptr %19, i64 4
  store i32 1, ptr %19, align 4, !tbaa !8
  store i32 -184549336, ptr %22, align 4
  %23 = getelementptr inbounds nuw i8, ptr %19, i64 8
  store ptr @l_Lean_instMonadCacheExceptTOfMonad___rarg___lambda__2, ptr %23, align 8, !tbaa !4
  %24 = getelementptr inbounds nuw i8, ptr %19, i64 16
  store i16 3, ptr %24, align 8, !tbaa !12
  %25 = getelementptr inbounds nuw i8, ptr %19, i64 18
  store i16 2, ptr %25, align 2, !tbaa !12
  %26 = getelementptr inbounds nuw i8, ptr %19, i64 24
  store ptr %0, ptr %26, align 8, !tbaa !4
  %27 = getelementptr inbounds nuw i8, ptr %19, i64 32
  store ptr %1, ptr %27, align 8, !tbaa !4
  tail call void @lean_inc_heartbeat() #4
  %28 = tail call noalias ptr @mi_malloc_small(i64 noundef 40) #4
  %29 = icmp eq ptr %28, null
  br i1 %29, label %30, label %lean_alloc_closure.exit19

30:                                               ; preds = %lean_alloc_closure.exit
  tail call void @lean_internal_panic_out_of_memory() #5
  unreachable

lean_alloc_closure.exit19:                        ; preds = %lean_alloc_closure.exit
  %31 = getelementptr inbounds nuw i8, ptr %28, i64 4
  store i32 1, ptr %28, align 4, !tbaa !8
  store i32 -184549336, ptr %31, align 4
  %32 = getelementptr inbounds nuw i8, ptr %28, i64 8
  store ptr @l_Lean_instMonadCacheExceptTOfMonad___rarg___lambda__3, ptr %32, align 8, !tbaa !4
  %33 = getelementptr inbounds nuw i8, ptr %28, i64 16
  store i16 4, ptr %33, align 8, !tbaa !12
  %34 = getelementptr inbounds nuw i8, ptr %28, i64 18
  store i16 2, ptr %34, align 2, !tbaa !12
  %35 = getelementptr inbounds nuw i8, ptr %28, i64 24
  store ptr %0, ptr %35, align 8, !tbaa !4
  %36 = getelementptr inbounds nuw i8, ptr %28, i64 32
  store ptr %1, ptr %36, align 8, !tbaa !4
  tail call void @lean_inc_heartbeat() #4
  %37 = tail call noalias ptr @mi_malloc_small(i64 noundef 24) #4
  %38 = icmp eq ptr %37, null
  br i1 %38, label %39, label %lean_alloc_ctor.exit

39:                                               ; preds = %lean_alloc_closure.exit19
  tail call void @lean_internal_panic_out_of_memory() #5
  unreachable

lean_alloc_ctor.exit:                             ; preds = %lean_alloc_closure.exit19
  %40 = getelementptr inbounds nuw i8, ptr %37, i64 4
  store i32 1, ptr %37, align 4, !tbaa !8
  store i32 131096, ptr %40, align 4
  %41 = getelementptr inbounds nuw i8, ptr %37, i64 8
  store ptr %19, ptr %41, align 8, !tbaa !4
  %42 = getelementptr inbounds nuw i8, ptr %37, i64 16
  store ptr %28, ptr %42, align 8, !tbaa !4
  ret ptr %37
}